; Function Attrs: nounwind uwtable
define range(i32 0, 2) i32 @Fraig_NodesAreEqual(ptr noundef %0, ptr noundef %1, ptr noundef %2, i32 noundef %3, i32 noundef %4) local_unnamed_addr #0 {
  %6 = icmp eq ptr %1, %2
  br i1 %6, label %19, label %7

7:                                                ; preds = %5
  %8 = ptrtoint ptr %2 to i64
  %9 = xor i64 %8, 1
  %10 = inttoptr i64 %9 to ptr
  %11 = icmp eq ptr %1, %10
  br i1 %11, label %19, label %12

12:                                               ; preds = %7
  %13 = ptrtoint ptr %1 to i64
  %14 = and i64 %13, -2
  %15 = inttoptr i64 %14 to ptr
  %16 = and i64 %8, -2
  %17 = inttoptr i64 %16 to ptr
  %18 = tail call i32 @Fraig_NodeIsEquivalent(ptr noundef %0, ptr noundef %15, ptr noundef %17, i32 noundef %3, i32 noundef %4)
  br label %19

19:                                               ; preds = %7, %5, %12
  %.0 = phi i32 [ %18, %12 ], [ 1, %5 ], [ 0, %7 ]
  ret i32 %.0
}